target datalayout = "e-m:e-p270:32:32-p271:32:32-p272:64:64-i64:64-i128:128-f80:128-n8:16:32:64-S128"
target triple = "x86_64-pc-linux-gnu"

; Function Attrs: nounwind uwtable
define dso_local i64 @FSE_NCountWriteBound(i32 noundef %0, i32 noundef %1) #0 {
  %3 = alloca i32, align 4
  %4 = alloca i32, align 4
  %5 = alloca i64, align 8
  store i32 %0, ptr %3, align 4
  store i32 %1, ptr %4, align 4
  %6 = load i32, ptr %3, align 4
  %7 = add i32 %6, 1
  %8 = load i32, ptr %4, align 4
  %9 = mul i32 %7, %8
  %10 = add i32 %9, 4
  %11 = add i32 %10, 2
  %12 = udiv i32 %11, 8
  %13 = add i32 %12, 1
  %14 = add i32 %13, 2
  %15 = zext i32 %14 to i64
  store i64 %15, ptr %5, align 8
  %16 = load i32, ptr %3, align 4
  %17 = icmp ne i32 %16, 0
  br i1 %17, label %18, label %20

18:                                               ; preds = %2
  %19 = load i64, ptr %5, align 8
  br label %21

20:                                               ; preds = %2
  br label %21

21:                                               ; preds = %20, %18
  %22 = phi i64 [ %19, %18 ], [ 512, %20 ]
  ret i64 %22
}